target datalayout = "e-m:e-p270:32:32-p271:32:32-p272:64:64-i64:64-i128:128-f80:128-n8:16:32:64-S128"
target triple = "x86_64-pc-linux-gnu"

@RESERVED_NON_WS = internal global ptr @.str.32, align 8

; Function Attrs: nounwind uwtable
define internal i32 @allow_unencoded(i8 noundef signext %0) #0 {
  %2 = alloca i32, align 4
  %3 = alloca i8, align 1
  store i8 %0, ptr %3, align 1, !tbaa !23
  %4 = load i8, ptr %3, align 1, !tbaa !23
  %5 = sext i8 %4 to i32
  %6 = icmp sle i32 %5, 32
  br i1 %6, label %15, label %7

7:                                                ; preds = %1
  %8 = load i8, ptr %3, align 1, !tbaa !23
  %9 = sext i8 %8 to i32
  %10 = icmp eq i32 %9, 37
  br i1 %10, label %15, label %11

11:                                               ; preds = %7
  %12 = load i8, ptr %3, align 1, !tbaa !23
  %13 = sext i8 %12 to i32
  %14 = icmp eq i32 %13, 43
  br i1 %14, label %15, label %16

15:                                               ; preds = %11, %7, %1
  store i32 0, ptr %2, align 4
  br label %24

16:                                               ; preds = %11
  %17 = load ptr, ptr @RESERVED_NON_WS, align 8, !tbaa !11
  %18 = load i8, ptr %3, align 1, !tbaa !23
  %19 = sext i8 %18 to i32
  %20 = call ptr @strchr(ptr noundef %17, i32 noundef %19) #11
  %21 = icmp ne ptr %20, null
  %22 = xor i1 %21, true
  %23 = zext i1 %22 to i32
  store i32 %23, ptr %2, align 4
  br label %24

24:                                               ; preds = %16, %15
  %25 = load i32, ptr %2, align 4
  ret i32 %25
}