; Function Attrs: mustprogress nofree nosync nounwind willreturn memory(none) uwtable
define internal range(i32 0, 2) i32 @allow_unencoded(i8 noundef signext %0) #11 {
  %2 = icmp slt i8 %0, 33
  br i1 %2, label %6, label %switch.early.test

switch.early.test:                                ; preds = %1
  switch i8 %0, label %3 [
    i8 43, label %6
    i8 37, label %6
  ]

3:                                                ; preds = %switch.early.test
  %4 = zext nneg i8 %0 to i32
  %memchr = tail call ptr @memchr(ptr noundef nonnull dereferenceable(1) @.str.32, i32 %4, i64 24)
  %.not = icmp eq ptr %memchr, null
  %5 = zext i1 %.not to i32
  br label %6

6:                                                ; preds = %1, %switch.early.test, %switch.early.test, %3
  %.0 = phi i32 [ %5, %3 ], [ 0, %switch.early.test ], [ 0, %switch.early.test ], [ 0, %1 ]
  ret i32 %.0
}